target datalayout = "e-m:e-p270:32:32-p271:32:32-p272:64:64-i64:64-i128:128-f80:128-n8:16:32:64-S128"
target triple = "x86_64-pc-linux-gnu"

%struct.FILENULL = type { i32 }
%struct._cms_io_handler = type { ptr, ptr, i32, i32, [256 x i8], ptr, ptr, ptr, ptr, ptr }

; Function Attrs: nounwind uwtable
define hidden ptr @cmsOpenIOhandlerFromNULL(ptr noundef %0) #0 {
  %2 = alloca ptr, align 8
  %3 = alloca ptr, align 8
  %4 = alloca ptr, align 8
  %5 = alloca ptr, align 8
  store ptr %0, ptr %3, align 8
  store ptr null, ptr %4, align 8
  store ptr null, ptr %5, align 8
  %6 = load ptr, ptr %3, align 8
  %7 = call ptr @_cmsMallocZero(ptr noundef %6, i32 noundef 320)
  store ptr %7, ptr %4, align 8
  %8 = load ptr, ptr %4, align 8
  %9 = icmp eq ptr %8, null
  br i1 %9, label %10, label %11

10:                                               ; preds = %1
  store ptr null, ptr %2, align 8
  br label %51

11:                                               ; preds = %1
  %12 = load ptr, ptr %3, align 8
  %13 = call ptr @_cmsMallocZero(ptr noundef %12, i32 noundef 4)
  store ptr %13, ptr %5, align 8
  %14 = load ptr, ptr %5, align 8
  %15 = icmp eq ptr %14, null
  br i1 %15, label %16, label %17

16:                                               ; preds = %11
  br label %44

17:                                               ; preds = %11
  %18 = load ptr, ptr %5, align 8
  %19 = getelementptr inbounds %struct.FILENULL, ptr %18, i32 0, i32 0
  store i32 0, ptr %19, align 4
  %20 = load ptr, ptr %3, align 8
  %21 = load ptr, ptr %4, align 8
  %22 = getelementptr inbounds %struct._cms_io_handler, ptr %21, i32 0, i32 1
  store ptr %20, ptr %22, align 8
  %23 = load ptr, ptr %5, align 8
  %24 = load ptr, ptr %4, align 8
  %25 = getelementptr inbounds %struct._cms_io_handler, ptr %24, i32 0, i32 0
  store ptr %23, ptr %25, align 8
  %26 = load ptr, ptr %4, align 8
  %27 = getelementptr inbounds %struct._cms_io_handler, ptr %26, i32 0, i32 2
  store i32 0, ptr %27, align 8
  %28 = load ptr, ptr %4, align 8
  %29 = getelementptr inbounds %struct._cms_io_handler, ptr %28, i32 0, i32 3
  store i32 0, ptr %29, align 4
  %30 = load ptr, ptr %4, align 8
  %31 = getelementptr inbounds %struct._cms_io_handler, ptr %30, i32 0, i32 4
  %32 = getelementptr inbounds [256 x i8], ptr %31, i64 0, i64 0
  store i8 0, ptr %32, align 8
  %33 = load ptr, ptr %4, align 8
  %34 = getelementptr inbounds %struct._cms_io_handler, ptr %33, i32 0, i32 5
  store ptr @NULLRead, ptr %34, align 8
  %35 = load ptr, ptr %4, align 8
  %36 = getelementptr inbounds %struct._cms_io_handler, ptr %35, i32 0, i32 6
  store ptr @NULLSeek, ptr %36, align 8
  %37 = load ptr, ptr %4, align 8
  %38 = getelementptr inbounds %struct._cms_io_handler, ptr %37, i32 0, i32 7
  store ptr @NULLClose, ptr %38, align 8
  %39 = load ptr, ptr %4, align 8
  %40 = getelementptr inbounds %struct._cms_io_handler, ptr %39, i32 0, i32 8
  store ptr @NULLTell, ptr %40, align 8
  %41 = load ptr, ptr %4, align 8
  %42 = getelementptr inbounds %struct._cms_io_handler, ptr %41, i32 0, i32 9
  store ptr @NULLWrite, ptr %42, align 8
  %43 = load ptr, ptr %4, align 8
  store ptr %43, ptr %2, align 8
  br label %51

44:                                               ; preds = %16
  %45 = load ptr, ptr %4, align 8
  %46 = icmp ne ptr %45, null
  br i1 %46, label %47, label %50

47:                                               ; preds = %44
  %48 = load ptr, ptr %3, align 8
  %49 = load ptr, ptr %4, align 8
  call void @_cmsFree(ptr noundef %48, ptr noundef %49)
  br label %50

50:                                               ; preds = %47, %44
  store ptr null, ptr %2, align 8
  br label %51

51:                                               ; preds = %50, %17, %10
  %52 = load ptr, ptr %2, align 8
  ret ptr %52
}