; Function Attrs: nounwind uwtable
define hidden ptr @cmsOpenIOhandlerFromNULL(ptr noundef %0) local_unnamed_addr #0 {
  %2 = tail call ptr @_cmsMallocZero(ptr noundef %0, i32 noundef 320) #19
  %3 = icmp eq ptr %2, null
  br i1 %3, label %16, label %4

4:                                                ; preds = %1
  %5 = tail call ptr @_cmsMallocZero(ptr noundef %0, i32 noundef 4) #19
  %6 = icmp eq ptr %5, null
  br i1 %6, label %15, label %7

7:                                                ; preds = %4
  store i32 0, ptr %5, align 4
  %8 = getelementptr inbounds i8, ptr %2, i64 8
  store ptr %0, ptr %8, align 8
  store ptr %5, ptr %2, align 8
  %9 = getelementptr inbounds i8, ptr %2, i64 16
  %10 = getelementptr inbounds i8, ptr %2, i64 280
  tail call void @llvm.memset.p0.i64(ptr noundef nonnull align 8 dereferenceable(9) %9, i8 0, i64 9, i1 false)
  store ptr @NULLRead, ptr %10, align 8
  %11 = getelementptr inbounds i8, ptr %2, i64 288
  store ptr @NULLSeek, ptr %11, align 8
  %12 = getelementptr inbounds i8, ptr %2, i64 296
  store ptr @NULLClose, ptr %12, align 8
  %13 = getelementptr inbounds i8, ptr %2, i64 304
  store ptr @NULLTell, ptr %13, align 8
  %14 = getelementptr inbounds i8, ptr %2, i64 312
  store ptr @NULLWrite, ptr %14, align 8
  br label %16

15:                                               ; preds = %4
  tail call void @_cmsFree(ptr noundef %0, ptr noundef nonnull %2) #19
  br label %16

16:                                               ; preds = %1, %15, %7
  %.0 = phi ptr [ null, %15 ], [ %2, %7 ], [ null, %1 ]
  ret ptr %.0
}